target datalayout = "e-m:e-p270:32:32-p271:32:32-p272:64:64-i64:64-i128:128-f80:128-n8:16:32:64-S128"
target triple = "x86_64-pc-linux-gnu"

%struct._ber_sequence_t = type { ptr, i8, i32, i32, ptr }
%struct._asn1_ctx_t = type { i32, i32, i8, ptr, ptr, ptr, ptr, ptr, %struct.anon, %struct.anon.2, %struct.anon.3, ptr }
%struct.anon = type { i32, i8, i8, i8, ptr, ptr, i32, i32, ptr, ptr, ptr, %union.anon }
%union.anon = type { %struct.anon.0 }
%struct.anon.0 = type { ptr }
%struct.anon.2 = type { ptr, ptr, ptr }
%struct.anon.3 = type { i32, i8, ptr, i32, i32, ptr, ptr, ptr, %union.anon.4 }
%union.anon.4 = type { %struct.anon.5 }
%struct.anon.5 = type { ptr }
%struct._packet_info = type { ptr, ptr, i32, i32, %struct.nstime_t, %struct.nstime_t, %struct.nstime_t, i8, ptr, ptr, ptr, ptr, %struct._address, %struct._address, %struct._address, %struct._address, %struct._address, %struct._address, i32, ptr, i8, [3 x i8], %struct.anon.7, i32, i32, i32, i32, ptr, i8, ptr, ptr, i16, i16, i32, i32, i16, i32, i32, ptr, ptr, ptr, i8, i8, i16, i16, i16, i32, i16, i16, ptr, ptr, ptr, ptr, ptr, i32, i32 }
%struct.nstime_t = type { i64, i32 }
%struct._address = type { i32, i32, ptr, ptr }
%struct.anon.7 = type { i8, [3 x i8] }

@hf_smrse_reserved = internal global i32 0, align 4
@hf_smrse_tag = internal global i32 0, align 4
@hf_smrse_length = internal global i32 0, align 4
@ett_smrse = internal global i32 0, align 4
@ett_smrse_SMR_Bind = internal global i32 0, align 4
@ett_smrse_SMR_Bind_Confirm = internal global i32 0, align 4
@ett_smrse_SMR_Bind_Failure = internal global i32 0, align 4
@ett_smrse_SMR_Unbind = internal global i32 0, align 4
@ett_smrse_RPDataMT = internal global i32 0, align 4
@ett_smrse_RPDataMO = internal global i32 0, align 4
@ett_smrse_RPAck = internal global i32 0, align 4
@ett_smrse_RPError = internal global i32 0, align 4
@ett_smrse_RPAlertSC = internal global i32 0, align 4
@.str.72 = private unnamed_addr constant [6 x i8] c"SMRSE\00", align 1
@proto_smrse = internal global i32 0, align 4
@.str.128 = private unnamed_addr constant [19 x i8] c"Unknown Tag:0x%02x\00", align 1
@SMR_Bind_Confirm_sequence = internal constant [1 x %struct._ber_sequence_t] zeroinitializer, align 16
@SMR_Unbind_sequence = internal constant [1 x %struct._ber_sequence_t] zeroinitializer, align 16

; Function Attrs: null_pointer_is_valid sspstrong uwtable
define internal i32 @dissect_smrse_RPAlertSC(i1 noundef zeroext %0, ptr noundef %1, i32 noundef %2, ptr noundef %3, ptr noundef %4, i32 noundef %5) #0 {
  %7 = alloca i8, align 1
  %8 = alloca ptr, align 8
  %9 = alloca i32, align 4
  %10 = alloca ptr, align 8
  %11 = alloca ptr, align 8
  %12 = alloca i32, align 4
  %13 = zext i1 %0 to i8
  store i8 %13, ptr %7, align 1
  store ptr %1, ptr %8, align 8
  store i32 %2, ptr %9, align 4
  store ptr %3, ptr %10, align 8
  store ptr %4, ptr %11, align 8
  store i32 %5, ptr %12, align 4
  %14 = load i8, ptr %7, align 1, !range !6, !noundef !7
  %15 = trunc i8 %14 to i1
  %16 = load ptr, ptr %10, align 8
  %17 = load ptr, ptr %11, align 8
  %18 = load ptr, ptr %8, align 8
  %19 = load i32, ptr %9, align 4
  %20 = load i32, ptr %12, align 4
  %21 = load i32, ptr @ett_smrse_RPAlertSC, align 4
  %22 = call i32 @dissect_ber_sequence(i1 noundef zeroext %15, ptr noundef %16, ptr noundef %17, ptr noundef %18, i32 noundef %19, ptr noundef @RPAlertSC_sequence, i32 noundef %20, i32 noundef %21)
  store i32 %22, ptr %9, align 4
  %23 = load i32, ptr %9, align 4
  ret i32 %23
}

; Function Attrs: null_pointer_is_valid sspstrong uwtable
define internal i32 @dissect_smrse_RPError(i1 noundef zeroext %0, ptr noundef %1, i32 noundef %2, ptr noundef %3, ptr noundef %4, i32 noundef %5) #0 {
  %7 = alloca i8, align 1
  %8 = alloca ptr, align 8
  %9 = alloca i32, align 4
  %10 = alloca ptr, align 8
  %11 = alloca ptr, align 8
  %12 = alloca i32, align 4
  %13 = zext i1 %0 to i8
  store i8 %13, ptr %7, align 1
  store ptr %1, ptr %8, align 8
  store i32 %2, ptr %9, align 4
  store ptr %3, ptr %10, align 8
  store ptr %4, ptr %11, align 8
  store i32 %5, ptr %12, align 4
  %14 = load i8, ptr %7, align 1, !range !6, !noundef !7
  %15 = trunc i8 %14 to i1
  %16 = load ptr, ptr %10, align 8
  %17 = load ptr, ptr %11, align 8
  %18 = load ptr, ptr %8, align 8
  %19 = load i32, ptr %9, align 4
  %20 = load i32, ptr %12, align 4
  %21 = load i32, ptr @ett_smrse_RPError, align 4
  %22 = call i32 @dissect_ber_sequence(i1 noundef zeroext %15, ptr noundef %16, ptr noundef %17, ptr noundef %18, i32 noundef %19, ptr noundef @RPError_sequence, i32 noundef %20, i32 noundef %21)
  store i32 %22, ptr %9, align 4
  %23 = load i32, ptr %9, align 4
  ret i32 %23
}

; Function Attrs: null_pointer_is_valid sspstrong uwtable
define internal i32 @dissect_smrse_RPAck(i1 noundef zeroext %0, ptr noundef %1, i32 noundef %2, ptr noundef %3, ptr noundef %4, i32 noundef %5) #0 {
  %7 = alloca i8, align 1
  %8 = alloca ptr, align 8
  %9 = alloca i32, align 4
  %10 = alloca ptr, align 8
  %11 = alloca ptr, align 8
  %12 = alloca i32, align 4
  %13 = zext i1 %0 to i8
  store i8 %13, ptr %7, align 1
  store ptr %1, ptr %8, align 8
  store i32 %2, ptr %9, align 4
  store ptr %3, ptr %10, align 8
  store ptr %4, ptr %11, align 8
  store i32 %5, ptr %12, align 4
  %14 = load i8, ptr %7, align 1, !range !6, !noundef !7
  %15 = trunc i8 %14 to i1
  %16 = load ptr, ptr %10, align 8
  %17 = load ptr, ptr %11, align 8
  %18 = load ptr, ptr %8, align 8
  %19 = load i32, ptr %9, align 4
  %20 = load i32, ptr %12, align 4
  %21 = load i32, ptr @ett_smrse_RPAck, align 4
  %22 = call i32 @dissect_ber_sequence(i1 noundef zeroext %15, ptr noundef %16, ptr noundef %17, ptr noundef %18, i32 noundef %19, ptr noundef @RPAck_sequence, i32 noundef %20, i32 noundef %21)
  store i32 %22, ptr %9, align 4
  %23 = load i32, ptr %9, align 4
  ret i32 %23
}

; Function Attrs: null_pointer_is_valid sspstrong uwtable
define internal i32 @dissect_smrse_RPDataMO(i1 noundef zeroext %0, ptr noundef %1, i32 noundef %2, ptr noundef %3, ptr noundef %4, i32 noundef %5) #0 {
  %7 = alloca i8, align 1
  %8 = alloca ptr, align 8
  %9 = alloca i32, align 4
  %10 = alloca ptr, align 8
  %11 = alloca ptr, align 8
  %12 = alloca i32, align 4
  %13 = zext i1 %0 to i8
  store i8 %13, ptr %7, align 1
  store ptr %1, ptr %8, align 8
  store i32 %2, ptr %9, align 4
  store ptr %3, ptr %10, align 8
  store ptr %4, ptr %11, align 8
  store i32 %5, ptr %12, align 4
  %14 = load i8, ptr %7, align 1, !range !6, !noundef !7
  %15 = trunc i8 %14 to i1
  %16 = load ptr, ptr %10, align 8
  %17 = load ptr, ptr %11, align 8
  %18 = load ptr, ptr %8, align 8
  %19 = load i32, ptr %9, align 4
  %20 = load i32, ptr %12, align 4
  %21 = load i32, ptr @ett_smrse_RPDataMO, align 4
  %22 = call i32 @dissect_ber_sequence(i1 noundef zeroext %15, ptr noundef %16, ptr noundef %17, ptr noundef %18, i32 noundef %19, ptr noundef @RPDataMO_sequence, i32 noundef %20, i32 noundef %21)
  store i32 %22, ptr %9, align 4
  %23 = load i32, ptr %9, align 4
  ret i32 %23
}

; Function Attrs: null_pointer_is_valid sspstrong uwtable
define internal i32 @dissect_smrse_RPDataMT(i1 noundef zeroext %0, ptr noundef %1, i32 noundef %2, ptr noundef %3, ptr noundef %4, i32 noundef %5) #0 {
  %7 = alloca i8, align 1
  %8 = alloca ptr, align 8
  %9 = alloca i32, align 4
  %10 = alloca ptr, align 8
  %11 = alloca ptr, align 8
  %12 = alloca i32, align 4
  %13 = zext i1 %0 to i8
  store i8 %13, ptr %7, align 1
  store ptr %1, ptr %8, align 8
  store i32 %2, ptr %9, align 4
  store ptr %3, ptr %10, align 8
  store ptr %4, ptr %11, align 8
  store i32 %5, ptr %12, align 4
  %14 = load i8, ptr %7, align 1, !range !6, !noundef !7
  %15 = trunc i8 %14 to i1
  %16 = load ptr, ptr %10, align 8
  %17 = load ptr, ptr %11, align 8
  %18 = load ptr, ptr %8, align 8
  %19 = load i32, ptr %9, align 4
  %20 = load i32, ptr %12, align 4
  %21 = load i32, ptr @ett_smrse_RPDataMT, align 4
  %22 = call i32 @dissect_ber_sequence(i1 noundef zeroext %15, ptr noundef %16, ptr noundef %17, ptr noundef %18, i32 noundef %19, ptr noundef @RPDataMT_sequence, i32 noundef %20, i32 noundef %21)
  store i32 %22, ptr %9, align 4
  %23 = load i32, ptr %9, align 4
  ret i32 %23
}

; Function Attrs: null_pointer_is_valid sspstrong uwtable
define internal i32 @dissect_smrse_SMR_Unbind(i1 noundef zeroext %0, ptr noundef %1, i32 noundef %2, ptr noundef %3, ptr noundef %4, i32 noundef %5) #0 {
  %7 = alloca i8, align 1
  %8 = alloca ptr, align 8
  %9 = alloca i32, align 4
  %10 = alloca ptr, align 8
  %11 = alloca ptr, align 8
  %12 = alloca i32, align 4
  %13 = zext i1 %0 to i8
  store i8 %13, ptr %7, align 1
  store ptr %1, ptr %8, align 8
  store i32 %2, ptr %9, align 4
  store ptr %3, ptr %10, align 8
  store ptr %4, ptr %11, align 8
  store i32 %5, ptr %12, align 4
  %14 = load i8, ptr %7, align 1, !range !6, !noundef !7
  %15 = trunc i8 %14 to i1
  %16 = load ptr, ptr %10, align 8
  %17 = load ptr, ptr %11, align 8
  %18 = load ptr, ptr %8, align 8
  %19 = load i32, ptr %9, align 4
  %20 = load i32, ptr %12, align 4
  %21 = load i32, ptr @ett_smrse_SMR_Unbind, align 4
  %22 = call i32 @dissect_ber_sequence(i1 noundef zeroext %15, ptr noundef %16, ptr noundef %17, ptr noundef %18, i32 noundef %19, ptr noundef @SMR_Unbind_sequence, i32 noundef %20, i32 noundef %21)
  store i32 %22, ptr %9, align 4
  %23 = load i32, ptr %9, align 4
  ret i32 %23
}

; Function Attrs: null_pointer_is_valid sspstrong uwtable
define internal i32 @dissect_smrse_SMR_Bind_Failure(i1 noundef zeroext %0, ptr noundef %1, i32 noundef %2, ptr noundef %3, ptr noundef %4, i32 noundef %5) #0 {
  %7 = alloca i8, align 1
  %8 = alloca ptr, align 8
  %9 = alloca i32, align 4
  %10 = alloca ptr, align 8
  %11 = alloca ptr, align 8
  %12 = alloca i32, align 4
  %13 = zext i1 %0 to i8
  store i8 %13, ptr %7, align 1
  store ptr %1, ptr %8, align 8
  store i32 %2, ptr %9, align 4
  store ptr %3, ptr %10, align 8
  store ptr %4, ptr %11, align 8
  store i32 %5, ptr %12, align 4
  %14 = load i8, ptr %7, align 1, !range !6, !noundef !7
  %15 = trunc i8 %14 to i1
  %16 = load ptr, ptr %10, align 8
  %17 = load ptr, ptr %11, align 8
  %18 = load ptr, ptr %8, align 8
  %19 = load i32, ptr %9, align 4
  %20 = load i32, ptr %12, align 4
  %21 = load i32, ptr @ett_smrse_SMR_Bind_Failure, align 4
  %22 = call i32 @dissect_ber_sequence(i1 noundef zeroext %15, ptr noundef %16, ptr noundef %17, ptr noundef %18, i32 noundef %19, ptr noundef @SMR_Bind_Failure_sequence, i32 noundef %20, i32 noundef %21)
  store i32 %22, ptr %9, align 4
  %23 = load i32, ptr %9, align 4
  ret i32 %23
}

; Function Attrs: null_pointer_is_valid sspstrong uwtable
define internal i32 @dissect_smrse_SMR_Bind_Confirm(i1 noundef zeroext %0, ptr noundef %1, i32 noundef %2, ptr noundef %3, ptr noundef %4, i32 noundef %5) #0 {
  %7 = alloca i8, align 1
  %8 = alloca ptr, align 8
  %9 = alloca i32, align 4
  %10 = alloca ptr, align 8
  %11 = alloca ptr, align 8
  %12 = alloca i32, align 4
  %13 = zext i1 %0 to i8
  store i8 %13, ptr %7, align 1
  store ptr %1, ptr %8, align 8
  store i32 %2, ptr %9, align 4
  store ptr %3, ptr %10, align 8
  store ptr %4, ptr %11, align 8
  store i32 %5, ptr %12, align 4
  %14 = load i8, ptr %7, align 1, !range !6, !noundef !7
  %15 = trunc i8 %14 to i1
  %16 = load ptr, ptr %10, align 8
  %17 = load ptr, ptr %11, align 8
  %18 = load ptr, ptr %8, align 8
  %19 = load i32, ptr %9, align 4
  %20 = load i32, ptr %12, align 4
  %21 = load i32, ptr @ett_smrse_SMR_Bind_Confirm, align 4
  %22 = call i32 @dissect_ber_sequence(i1 noundef zeroext %15, ptr noundef %16, ptr noundef %17, ptr noundef %18, i32 noundef %19, ptr noundef @SMR_Bind_Confirm_sequence, i32 noundef %20, i32 noundef %21)
  store i32 %22, ptr %9, align 4
  %23 = load i32, ptr %9, align 4
  ret i32 %23
}

; Function Attrs: null_pointer_is_valid sspstrong uwtable
define internal i32 @dissect_smrse_SMR_Bind(i1 noundef zeroext %0, ptr noundef %1, i32 noundef %2, ptr noundef %3, ptr noundef %4, i32 noundef %5) #0 {
  %7 = alloca i8, align 1
  %8 = alloca ptr, align 8
  %9 = alloca i32, align 4
  %10 = alloca ptr, align 8
  %11 = alloca ptr, align 8
  %12 = alloca i32, align 4
  %13 = zext i1 %0 to i8
  store i8 %13, ptr %7, align 1
  store ptr %1, ptr %8, align 8
  store i32 %2, ptr %9, align 4
  store ptr %3, ptr %10, align 8
  store ptr %4, ptr %11, align 8
  store i32 %5, ptr %12, align 4
  %14 = load i8, ptr %7, align 1, !range !6, !noundef !7
  %15 = trunc i8 %14 to i1
  %16 = load ptr, ptr %10, align 8
  %17 = load ptr, ptr %11, align 8
  %18 = load ptr, ptr %8, align 8
  %19 = load i32, ptr %9, align 4
  %20 = load i32, ptr %12, align 4
  %21 = load i32, ptr @ett_smrse_SMR_Bind, align 4
  %22 = call i32 @dissect_ber_sequence(i1 noundef zeroext %15, ptr noundef %16, ptr noundef %17, ptr noundef %18, i32 noundef %19, ptr noundef @SMR_Bind_sequence, i32 noundef %20, i32 noundef %21)
  store i32 %22, ptr %9, align 4
  %23 = load i32, ptr %9, align 4
  ret i32 %23
}

; Function Attrs: null_pointer_is_valid sspstrong uwtable
define internal i32 @dissect_smrse(ptr noundef %0, ptr noundef %1, ptr noundef %2, ptr noundef %3) #0 {
  %5 = alloca i32, align 4
  %6 = alloca ptr, align 8
  %7 = alloca ptr, align 8
  %8 = alloca ptr, align 8
  %9 = alloca ptr, align 8
  %10 = alloca ptr, align 8
  %11 = alloca ptr, align 8
  %12 = alloca i8, align 1
  %13 = alloca i8, align 1
  %14 = alloca i32, align 4
  %15 = alloca %struct._asn1_ctx_t, align 8
  %16 = alloca i32, align 4
  store ptr %0, ptr %6, align 8
  store ptr %1, ptr %7, align 8
  store ptr %2, ptr %8, align 8
  store ptr %3, ptr %9, align 8
  call void @llvm.lifetime.start.p0(i64 8, ptr %10) #3
  store ptr null, ptr %10, align 8
  call void @llvm.lifetime.start.p0(i64 8, ptr %11) #3
  store ptr null, ptr %11, align 8
  call void @llvm.lifetime.start.p0(i64 1, ptr %12) #3
  call void @llvm.lifetime.start.p0(i64 1, ptr %13) #3
  call void @llvm.lifetime.start.p0(i64 4, ptr %14) #3
  store i32 0, ptr %14, align 4
  call void @llvm.lifetime.start.p0(i64 208, ptr %15) #3
  %17 = load ptr, ptr %7, align 8
  call void @asn1_ctx_init(ptr noundef %15, i32 noundef 0, i1 noundef zeroext true, ptr noundef %17)
  %18 = load ptr, ptr %6, align 8
  %19 = call zeroext i8 @tvb_get_uint8(ptr noundef %18, i32 noundef 0)
  store i8 %19, ptr %12, align 1
  %20 = load ptr, ptr %6, align 8
  %21 = call zeroext i8 @tvb_get_uint8(ptr noundef %20, i32 noundef 3)
  store i8 %21, ptr %13, align 1
  %22 = load i8, ptr %12, align 1
  %23 = zext i8 %22 to i32
  %24 = icmp ne i32 %23, 126
  br i1 %24, label %25, label %26

25:                                               ; preds = %4
  store i32 0, ptr %5, align 4
  store i32 1, ptr %16, align 4
  br label %109

26:                                               ; preds = %4
  %27 = load i8, ptr %13, align 1
  %28 = zext i8 %27 to i32
  %29 = icmp slt i32 %28, 1
  br i1 %29, label %34, label %30

30:                                               ; preds = %26
  %31 = load i8, ptr %13, align 1
  %32 = zext i8 %31 to i32
  %33 = icmp sgt i32 %32, 11
  br i1 %33, label %34, label %35

34:                                               ; preds = %30, %26
  store i32 0, ptr %5, align 4
  store i32 1, ptr %16, align 4
  br label %109

35:                                               ; preds = %30
  %36 = load ptr, ptr %8, align 8
  %37 = icmp ne ptr %36, null
  br i1 %37, label %38, label %46

38:                                               ; preds = %35
  %39 = load ptr, ptr %8, align 8
  %40 = load i32, ptr @proto_smrse, align 4
  %41 = load ptr, ptr %6, align 8
  %42 = call ptr @proto_tree_add_item(ptr noundef %39, i32 noundef %40, ptr noundef %41, i32 noundef 0, i32 noundef -1, i32 noundef 0)
  store ptr %42, ptr %10, align 8
  %43 = load ptr, ptr %10, align 8
  %44 = load i32, ptr @ett_smrse, align 4
  %45 = call ptr @proto_item_add_subtree(ptr noundef %43, i32 noundef %44)
  store ptr %45, ptr %11, align 8
  br label %46

46:                                               ; preds = %38, %35
  %47 = load ptr, ptr %7, align 8
  %48 = getelementptr inbounds nuw %struct._packet_info, ptr %47, i32 0, i32 1
  %49 = load ptr, ptr %48, align 8
  call void @col_set_str(ptr noundef %49, i32 noundef 35, ptr noundef @.str.72)
  %50 = load ptr, ptr %7, align 8
  %51 = getelementptr inbounds nuw %struct._packet_info, ptr %50, i32 0, i32 1
  %52 = load ptr, ptr %51, align 8
  %53 = load i8, ptr %13, align 1
  %54 = zext i8 %53 to i32
  %55 = call ptr @val_to_str(i32 noundef %54, ptr noundef @tag_vals, ptr noundef @.str.128)
  call void @col_add_str(ptr noundef %52, i32 noundef 25, ptr noundef %55)
  %56 = load ptr, ptr %11, align 8
  %57 = load i32, ptr @hf_smrse_reserved, align 4
  %58 = load ptr, ptr %6, align 8
  %59 = call ptr @proto_tree_add_item(ptr noundef %56, i32 noundef %57, ptr noundef %58, i32 noundef 0, i32 noundef 1, i32 noundef 0)
  %60 = load ptr, ptr %11, align 8
  %61 = load i32, ptr @hf_smrse_length, align 4
  %62 = load ptr, ptr %6, align 8
  %63 = call ptr @proto_tree_add_item(ptr noundef %60, i32 noundef %61, ptr noundef %62, i32 noundef 1, i32 noundef 2, i32 noundef 0)
  %64 = load ptr, ptr %11, align 8
  %65 = load i32, ptr @hf_smrse_tag, align 4
  %66 = load ptr, ptr %6, align 8
  %67 = call ptr @proto_tree_add_item(ptr noundef %64, i32 noundef %65, ptr noundef %66, i32 noundef 3, i32 noundef 1, i32 noundef 0)
  %68 = load i8, ptr %13, align 1
  %69 = zext i8 %68 to i32
  switch i32 %69, label %107 [
    i32 1, label %70
    i32 2, label %70
    i32 3, label %71
    i32 4, label %75
    i32 5, label %79
    i32 6, label %83
    i32 7, label %87
    i32 8, label %91
    i32 9, label %95
    i32 10, label %99
    i32 11, label %103
  ]

70:                                               ; preds = %46, %46
  store i32 4, ptr %14, align 4
  br label %107

71:                                               ; preds = %46
  %72 = load ptr, ptr %6, align 8
  %73 = load ptr, ptr %11, align 8
  %74 = call i32 @dissect_smrse_SMR_Bind(i1 noundef zeroext false, ptr noundef %72, i32 noundef 4, ptr noundef %15, ptr noundef %73, i32 noundef -1)
  store i32 %74, ptr %14, align 4
  br label %107

75:                                               ; preds = %46
  %76 = load ptr, ptr %6, align 8
  %77 = load ptr, ptr %11, align 8
  %78 = call i32 @dissect_smrse_SMR_Bind_Confirm(i1 noundef zeroext false, ptr noundef %76, i32 noundef 4, ptr noundef %15, ptr noundef %77, i32 noundef -1)
  store i32 %78, ptr %14, align 4
  br label %107

79:                                               ; preds = %46
  %80 = load ptr, ptr %6, align 8
  %81 = load ptr, ptr %11, align 8
  %82 = call i32 @dissect_smrse_SMR_Bind_Failure(i1 noundef zeroext false, ptr noundef %80, i32 noundef 4, ptr noundef %15, ptr noundef %81, i32 noundef -1)
  store i32 %82, ptr %14, align 4
  br label %107

83:                                               ; preds = %46
  %84 = load ptr, ptr %6, align 8
  %85 = load ptr, ptr %11, align 8
  %86 = call i32 @dissect_smrse_SMR_Unbind(i1 noundef zeroext false, ptr noundef %84, i32 noundef 4, ptr noundef %15, ptr noundef %85, i32 noundef -1)
  store i32 %86, ptr %14, align 4
  br label %107

87:                                               ; preds = %46
  %88 = load ptr, ptr %6, align 8
  %89 = load ptr, ptr %11, align 8
  %90 = call i32 @dissect_smrse_RPDataMT(i1 noundef zeroext false, ptr noundef %88, i32 noundef 4, ptr noundef %15, ptr noundef %89, i32 noundef -1)
  store i32 %90, ptr %14, align 4
  br label %107

91:                                               ; preds = %46
  %92 = load ptr, ptr %6, align 8
  %93 = load ptr, ptr %11, align 8
  %94 = call i32 @dissect_smrse_RPDataMO(i1 noundef zeroext false, ptr noundef %92, i32 noundef 4, ptr noundef %15, ptr noundef %93, i32 noundef -1)
  store i32 %94, ptr %14, align 4
  br label %107

95:                                               ; preds = %46
  %96 = load ptr, ptr %6, align 8
  %97 = load ptr, ptr %11, align 8
  %98 = call i32 @dissect_smrse_RPAck(i1 noundef zeroext false, ptr noundef %96, i32 noundef 4, ptr noundef %15, ptr noundef %97, i32 noundef -1)
  store i32 %98, ptr %14, align 4
  br label %107

99:                                               ; preds = %46
  %100 = load ptr, ptr %6, align 8
  %101 = load ptr, ptr %11, align 8
  %102 = call i32 @dissect_smrse_RPError(i1 noundef zeroext false, ptr noundef %100, i32 noundef 4, ptr noundef %15, ptr noundef %101, i32 noundef -1)
  store i32 %102, ptr %14, align 4
  br label %107

103:                                              ; preds = %46
  %104 = load ptr, ptr %6, align 8
  %105 = load ptr, ptr %11, align 8
  %106 = call i32 @dissect_smrse_RPAlertSC(i1 noundef zeroext false, ptr noundef %104, i32 noundef 4, ptr noundef %15, ptr noundef %105, i32 noundef -1)
  store i32 %106, ptr %14, align 4
  br label %107

107:                                              ; preds = %46, %103, %99, %95, %91, %87, %83, %79, %75, %71, %70
  %108 = load i32, ptr %14, align 4
  store i32 %108, ptr %5, align 4
  store i32 1, ptr %16, align 4
  br label %109

109:                                              ; preds = %107, %34, %25
  call void @llvm.lifetime.end.p0(i64 208, ptr %15) #3
  call void @llvm.lifetime.end.p0(i64 4, ptr %14) #3
  call void @llvm.lifetime.end.p0(i64 1, ptr %13) #3
  call void @llvm.lifetime.end.p0(i64 1, ptr %12) #3
  call void @llvm.lifetime.end.p0(i64 8, ptr %11) #3
  call void @llvm.lifetime.end.p0(i64 8, ptr %10) #3
  %110 = load i32, ptr %5, align 4
  ret i32 %110
}