; Function Attrs: null_pointer_is_valid sspstrong uwtable
define internal i32 @dissect_smrse(ptr noundef %0, ptr noundef %1, ptr noundef %2, ptr readnone captures(none) %3) #0 {
  %5 = alloca %struct._asn1_ctx_t, align 8
  call void @llvm.lifetime.start.p0(i64 208, ptr nonnull %5) #3
  call void @asn1_ctx_init(ptr noundef nonnull %5, i32 noundef 0, i1 noundef zeroext true, ptr noundef %1)
  %6 = call zeroext i8 @tvb_get_uint8(ptr noundef %0, i32 noundef 0)
  %7 = call zeroext i8 @tvb_get_uint8(ptr noundef %0, i32 noundef 3)
  %.not = icmp eq i8 %6, 126
  br i1 %.not, label %8, label %38

8:                                                ; preds = %4
  %9 = zext i8 %7 to i32
  %10 = add i8 %7, -12
  %or.cond = icmp ult i8 %10, -11
  br i1 %or.cond, label %38, label %11

11:                                               ; preds = %8
  %.not45 = icmp eq ptr %2, null
  br i1 %.not45, label %17, label %12

12:                                               ; preds = %11
  %13 = load i32, ptr @proto_smrse, align 4
  %14 = call ptr @proto_tree_add_item(ptr noundef nonnull %2, i32 noundef %13, ptr noundef %0, i32 noundef 0, i32 noundef -1, i32 noundef 0)
  %15 = load i32, ptr @ett_smrse, align 4
  %16 = call ptr @proto_item_add_subtree(ptr noundef %14, i32 noundef %15)
  br label %17

17:                                               ; preds = %12, %11
  %.042 = phi ptr [ %16, %12 ], [ null, %11 ]
  %18 = getelementptr inbounds nuw i8, ptr %1, i64 8
  %19 = load ptr, ptr %18, align 8
  call void @col_set_str(ptr noundef %19, i32 noundef 35, ptr noundef nonnull @.str.72)
  %20 = load ptr, ptr %18, align 8
  %21 = call ptr @val_to_str(i32 noundef %9, ptr noundef nonnull @tag_vals, ptr noundef nonnull @.str.128)
  call void @col_add_str(ptr noundef %20, i32 noundef 25, ptr noundef %21)
  %22 = load i32, ptr @hf_smrse_reserved, align 4
  %23 = call ptr @proto_tree_add_item(ptr noundef %.042, i32 noundef %22, ptr noundef %0, i32 noundef 0, i32 noundef 1, i32 noundef 0)
  %24 = load i32, ptr @hf_smrse_length, align 4
  %25 = call ptr @proto_tree_add_item(ptr noundef %.042, i32 noundef %24, ptr noundef %0, i32 noundef 1, i32 noundef 2, i32 noundef 0)
  %26 = load i32, ptr @hf_smrse_tag, align 4
  %27 = call ptr @proto_tree_add_item(ptr noundef %.042, i32 noundef %26, ptr noundef %0, i32 noundef 3, i32 noundef 1, i32 noundef 0)
  switch i8 %7, label %default.unreachable [
    i8 1, label %38
    i8 2, label %38
    i8 3, label %.sink.split
    i8 4, label %28
    i8 5, label %29
    i8 6, label %30
    i8 7, label %31
    i8 8, label %32
    i8 9, label %33
    i8 10, label %34
    i8 11, label %35
  ]

28:                                               ; preds = %17
  br label %.sink.split

29:                                               ; preds = %17
  br label %.sink.split

30:                                               ; preds = %17
  br label %.sink.split

31:                                               ; preds = %17
  br label %.sink.split

32:                                               ; preds = %17
  br label %.sink.split

33:                                               ; preds = %17
  br label %.sink.split

34:                                               ; preds = %17
  br label %.sink.split

35:                                               ; preds = %17
  br label %.sink.split

default.unreachable:                              ; preds = %17
  unreachable

.sink.split:                                      ; preds = %17, %35, %34, %33, %32, %31, %30, %29, %28
  %ett_smrse_SMR_Bind.sink = phi ptr [ @ett_smrse_SMR_Bind_Confirm, %28 ], [ @ett_smrse_SMR_Bind_Failure, %29 ], [ @ett_smrse_SMR_Unbind, %30 ], [ @ett_smrse_RPDataMT, %31 ], [ @ett_smrse_RPDataMO, %32 ], [ @ett_smrse_RPAck, %33 ], [ @ett_smrse_RPError, %34 ], [ @ett_smrse_RPAlertSC, %35 ], [ @ett_smrse_SMR_Bind, %17 ]
  %SMR_Bind_sequence.sink = phi ptr [ @SMR_Bind_Confirm_sequence, %28 ], [ @SMR_Bind_Failure_sequence, %29 ], [ @SMR_Unbind_sequence, %30 ], [ @RPDataMT_sequence, %31 ], [ @RPDataMO_sequence, %32 ], [ @RPAck_sequence, %33 ], [ @RPError_sequence, %34 ], [ @RPAlertSC_sequence, %35 ], [ @SMR_Bind_sequence, %17 ]
  %36 = load i32, ptr %ett_smrse_SMR_Bind.sink, align 4
  %37 = call i32 @dissect_ber_sequence(i1 noundef zeroext false, ptr noundef nonnull %5, ptr noundef %.042, ptr noundef %0, i32 noundef 4, ptr noundef nonnull %SMR_Bind_sequence.sink, i32 noundef -1, i32 noundef %36)
  br label %38

38:                                               ; preds = %.sink.split, %17, %17, %8, %4
  %.041 = phi i32 [ 0, %4 ], [ 0, %8 ], [ 4, %17 ], [ 4, %17 ], [ %37, %.sink.split ]
  call void @llvm.lifetime.end.p0(i64 208, ptr nonnull %5) #3
  ret i32 %.041
}